target datalayout = "e-m:e-p270:32:32-p271:32:32-p272:64:64-i64:64-i128:128-f80:128-n8:16:32:64-S128"
target triple = "x86_64-pc-linux-gnu"

%struct.strbuf = type { i64, i64, ptr }
%struct.string_list = type { ptr, i64, i64, i8, ptr }
%struct.string_list_item = type { ptr, ptr }
%struct.active_request_slot = type { ptr, i32, i32, i64, ptr, ptr, ptr, ptr, ptr }
%struct.http_pack_request = type { ptr, ptr, i8, ptr, %struct.strbuf, ptr, ptr }

@http_is_verbose = dso_local global i32 0, align 4
@.str.40 = private unnamed_addr constant [2 x i8] c"a\00", align 1
@the_repository = external global ptr, align 8
@.str.47 = private unnamed_addr constant [5 x i8] c"pack\00", align 1
@.str.48 = private unnamed_addr constant [6 x i8] c".temp\00", align 1
@.str.49 = private unnamed_addr constant [38 x i8] c"Unable to open local file %s for pack\00", align 1
@stderr = external global ptr, align 8
@.str.50 = private unnamed_addr constant [39 x i8] c"Resuming fetch of pack %s at byte %lu\0A\00", align 1
@extra_http_headers = internal global { ptr, i64, i64, i8, [7 x i8], ptr } { ptr null, i64 0, i64 0, i8 1, [7 x i8] zeroinitializer, ptr null }, align 8
@.str.190 = private unnamed_addr constant [8 x i8] c"Pragma:\00", align 1
@.str.209 = private unnamed_addr constant [5 x i8] c"%lu-\00", align 1

; Function Attrs: nounwind uwtable
define dso_local ptr @http_copy_default_headers() #0 {
  %1 = alloca ptr, align 8
  %2 = alloca ptr, align 8
  call void @llvm.lifetime.start.p0(i64 8, ptr %1) #11
  store ptr null, ptr %1, align 8, !tbaa !25
  call void @llvm.lifetime.start.p0(i64 8, ptr %2) #11
  %3 = load ptr, ptr @extra_http_headers, align 8, !tbaa !69
  store ptr %3, ptr %2, align 8, !tbaa !70
  br label %4

4:                                                ; preds = %21, %0
  %5 = load ptr, ptr %2, align 8, !tbaa !70
  %6 = icmp ne ptr %5, null
  br i1 %6, label %7, label %13

7:                                                ; preds = %4
  %8 = load ptr, ptr %2, align 8, !tbaa !70
  %9 = load ptr, ptr @extra_http_headers, align 8, !tbaa !69
  %10 = load i64, ptr getelementptr inbounds nuw (%struct.string_list, ptr @extra_http_headers, i32 0, i32 1), align 8, !tbaa !71
  %11 = getelementptr inbounds nuw %struct.string_list_item, ptr %9, i64 %10
  %12 = icmp ult ptr %8, %11
  br label %13

13:                                               ; preds = %7, %4
  %14 = phi i1 [ false, %4 ], [ %12, %7 ]
  br i1 %14, label %15, label %24

15:                                               ; preds = %13
  %16 = load ptr, ptr %1, align 8, !tbaa !25
  %17 = load ptr, ptr %2, align 8, !tbaa !70
  %18 = getelementptr inbounds nuw %struct.string_list_item, ptr %17, i32 0, i32 0
  %19 = load ptr, ptr %18, align 8, !tbaa !72
  %20 = call ptr @curl_slist_append(ptr noundef %16, ptr noundef %19)
  store ptr %20, ptr %1, align 8, !tbaa !25
  br label %21

21:                                               ; preds = %15
  %22 = load ptr, ptr %2, align 8, !tbaa !70
  %23 = getelementptr inbounds nuw %struct.string_list_item, ptr %22, i32 1
  store ptr %23, ptr %2, align 8, !tbaa !70
  br label %4, !llvm.loop !74

24:                                               ; preds = %13
  %25 = load ptr, ptr %1, align 8, !tbaa !25
  call void @llvm.lifetime.end.p0(i64 8, ptr %2) #11
  call void @llvm.lifetime.end.p0(i64 8, ptr %1) #11
  ret ptr %25
}

; Function Attrs: nounwind uwtable
define internal void @http_opt_request_remainder(ptr noundef %0, i64 noundef %1) #0 {
  %3 = alloca ptr, align 8
  %4 = alloca i64, align 8
  %5 = alloca [128 x i8], align 16
  store ptr %0, ptr %3, align 8, !tbaa !11
  store i64 %1, ptr %4, align 8, !tbaa !9
  call void @llvm.lifetime.start.p0(i64 128, ptr %5) #11
  %6 = getelementptr inbounds [128 x i8], ptr %5, i64 0, i64 0
  %7 = load i64, ptr %4, align 8, !tbaa !9
  %8 = call i32 (ptr, i64, ptr, ...) @xsnprintf(ptr noundef %6, i64 noundef 128, ptr noundef @.str.209, i64 noundef %7)
  %9 = load ptr, ptr %3, align 8, !tbaa !11
  %10 = getelementptr inbounds [128 x i8], ptr %5, i64 0, i64 0
  %11 = call i32 (ptr, i32, ...) @curl_easy_setopt(ptr noundef %9, i32 noundef 10007, ptr noundef %10)
  call void @llvm.lifetime.end.p0(i64 128, ptr %5) #11
  ret void
}

; Function Attrs: nounwind uwtable
define internal ptr @object_request_headers() #0 {
  %1 = call ptr @http_copy_default_headers()
  %2 = call ptr @curl_slist_append(ptr noundef %1, ptr noundef @.str.190)
  ret ptr %2
}

; Function Attrs: inlinehint nounwind uwtable
define internal i32 @const_error() #5 {
  ret i32 -1
}

; Function Attrs: inlinehint nounwind uwtable
define internal void @strbuf_addstr(ptr noundef %0, ptr noundef %1) #5 {
  %3 = alloca ptr, align 8
  %4 = alloca ptr, align 8
  store ptr %0, ptr %3, align 8, !tbaa !21
  store ptr %1, ptr %4, align 8, !tbaa !4
  %5 = load ptr, ptr %3, align 8, !tbaa !21
  %6 = load ptr, ptr %4, align 8, !tbaa !4
  %7 = load ptr, ptr %4, align 8, !tbaa !4
  %8 = call i64 @strlen(ptr noundef %7) #13
  call void @strbuf_add(ptr noundef %5, ptr noundef %6, i64 noundef %8)
  ret void
}

; Function Attrs: nounwind uwtable
define dso_local ptr @new_direct_http_pack_request(ptr noundef %0, ptr noundef %1) #0 {
  %3 = alloca ptr, align 8
  %4 = alloca ptr, align 8
  %5 = alloca ptr, align 8
  %6 = alloca i64, align 8
  %7 = alloca ptr, align 8
  %8 = alloca i32, align 4
  store ptr %0, ptr %4, align 8, !tbaa !4
  store ptr %1, ptr %5, align 8, !tbaa !4
  call void @llvm.lifetime.start.p0(i64 8, ptr %6) #11
  store i64 0, ptr %6, align 8, !tbaa !9
  call void @llvm.lifetime.start.p0(i64 8, ptr %7) #11
  %9 = call ptr @xcalloc(i64 noundef 1, i64 noundef 72)
  store ptr %9, ptr %7, align 8, !tbaa !187
  %10 = load ptr, ptr %7, align 8, !tbaa !187
  %11 = getelementptr inbounds nuw %struct.http_pack_request, ptr %10, i32 0, i32 4
  call void @strbuf_init(ptr noundef %11, i64 noundef 0)
  %12 = load ptr, ptr %5, align 8, !tbaa !4
  %13 = load ptr, ptr %7, align 8, !tbaa !187
  %14 = getelementptr inbounds nuw %struct.http_pack_request, ptr %13, i32 0, i32 0
  store ptr %12, ptr %14, align 8, !tbaa !193
  %15 = load ptr, ptr @the_repository, align 8, !tbaa !66
  %16 = load ptr, ptr %7, align 8, !tbaa !187
  %17 = getelementptr inbounds nuw %struct.http_pack_request, ptr %16, i32 0, i32 4
  %18 = load ptr, ptr %4, align 8, !tbaa !4
  %19 = call ptr @odb_pack_name(ptr noundef %15, ptr noundef %17, ptr noundef %18, ptr noundef @.str.47)
  %20 = load ptr, ptr %7, align 8, !tbaa !187
  %21 = getelementptr inbounds nuw %struct.http_pack_request, ptr %20, i32 0, i32 4
  call void @strbuf_addstr(ptr noundef %21, ptr noundef @.str.48)
  %22 = load ptr, ptr %7, align 8, !tbaa !187
  %23 = getelementptr inbounds nuw %struct.http_pack_request, ptr %22, i32 0, i32 4
  %24 = getelementptr inbounds nuw %struct.strbuf, ptr %23, i32 0, i32 2
  %25 = load ptr, ptr %24, align 8, !tbaa !194
  %26 = call ptr @git_fopen(ptr noundef %25, ptr noundef @.str.40)
  %27 = load ptr, ptr %7, align 8, !tbaa !187
  %28 = getelementptr inbounds nuw %struct.http_pack_request, ptr %27, i32 0, i32 3
  store ptr %26, ptr %28, align 8, !tbaa !189
  %29 = load ptr, ptr %7, align 8, !tbaa !187
  %30 = getelementptr inbounds nuw %struct.http_pack_request, ptr %29, i32 0, i32 3
  %31 = load ptr, ptr %30, align 8, !tbaa !189
  %32 = icmp ne ptr %31, null
  br i1 %32, label %40, label %33

33:                                               ; preds = %2
  %34 = load ptr, ptr %7, align 8, !tbaa !187
  %35 = getelementptr inbounds nuw %struct.http_pack_request, ptr %34, i32 0, i32 4
  %36 = getelementptr inbounds nuw %struct.strbuf, ptr %35, i32 0, i32 2
  %37 = load ptr, ptr %36, align 8, !tbaa !194
  %38 = call i32 (ptr, ...) @error(ptr noundef @.str.49, ptr noundef %37)
  %39 = call i32 @const_error()
  br label %104

40:                                               ; preds = %2
  %41 = call ptr @get_active_slot()
  %42 = load ptr, ptr %7, align 8, !tbaa !187
  %43 = getelementptr inbounds nuw %struct.http_pack_request, ptr %42, i32 0, i32 5
  store ptr %41, ptr %43, align 8, !tbaa !191
  %44 = call ptr @object_request_headers()
  %45 = load ptr, ptr %7, align 8, !tbaa !187
  %46 = getelementptr inbounds nuw %struct.http_pack_request, ptr %45, i32 0, i32 6
  store ptr %44, ptr %46, align 8, !tbaa !192
  %47 = load ptr, ptr %7, align 8, !tbaa !187
  %48 = getelementptr inbounds nuw %struct.http_pack_request, ptr %47, i32 0, i32 5
  %49 = load ptr, ptr %48, align 8, !tbaa !191
  %50 = getelementptr inbounds nuw %struct.active_request_slot, ptr %49, i32 0, i32 0
  %51 = load ptr, ptr %50, align 8, !tbaa !94
  %52 = load ptr, ptr %7, align 8, !tbaa !187
  %53 = getelementptr inbounds nuw %struct.http_pack_request, ptr %52, i32 0, i32 3
  %54 = load ptr, ptr %53, align 8, !tbaa !189
  %55 = call i32 (ptr, i32, ...) @curl_easy_setopt(ptr noundef %51, i32 noundef 10001, ptr noundef %54)
  %56 = load ptr, ptr %7, align 8, !tbaa !187
  %57 = getelementptr inbounds nuw %struct.http_pack_request, ptr %56, i32 0, i32 5
  %58 = load ptr, ptr %57, align 8, !tbaa !191
  %59 = getelementptr inbounds nuw %struct.active_request_slot, ptr %58, i32 0, i32 0
  %60 = load ptr, ptr %59, align 8, !tbaa !94
  %61 = call i32 (ptr, i32, ...) @curl_easy_setopt(ptr noundef %60, i32 noundef 20011, ptr noundef @fwrite)
  %62 = load ptr, ptr %7, align 8, !tbaa !187
  %63 = getelementptr inbounds nuw %struct.http_pack_request, ptr %62, i32 0, i32 5
  %64 = load ptr, ptr %63, align 8, !tbaa !191
  %65 = getelementptr inbounds nuw %struct.active_request_slot, ptr %64, i32 0, i32 0
  %66 = load ptr, ptr %65, align 8, !tbaa !94
  %67 = load ptr, ptr %7, align 8, !tbaa !187
  %68 = getelementptr inbounds nuw %struct.http_pack_request, ptr %67, i32 0, i32 0
  %69 = load ptr, ptr %68, align 8, !tbaa !193
  %70 = call i32 (ptr, i32, ...) @curl_easy_setopt(ptr noundef %66, i32 noundef 10002, ptr noundef %69)
  %71 = load ptr, ptr %7, align 8, !tbaa !187
  %72 = getelementptr inbounds nuw %struct.http_pack_request, ptr %71, i32 0, i32 5
  %73 = load ptr, ptr %72, align 8, !tbaa !191
  %74 = getelementptr inbounds nuw %struct.active_request_slot, ptr %73, i32 0, i32 0
  %75 = load ptr, ptr %74, align 8, !tbaa !94
  %76 = load ptr, ptr %7, align 8, !tbaa !187
  %77 = getelementptr inbounds nuw %struct.http_pack_request, ptr %76, i32 0, i32 6
  %78 = load ptr, ptr %77, align 8, !tbaa !192
  %79 = call i32 (ptr, i32, ...) @curl_easy_setopt(ptr noundef %75, i32 noundef 10023, ptr noundef %78)
  %80 = load ptr, ptr %7, align 8, !tbaa !187
  %81 = getelementptr inbounds nuw %struct.http_pack_request, ptr %80, i32 0, i32 3
  %82 = load ptr, ptr %81, align 8, !tbaa !189
  %83 = call i64 @ftello64(ptr noundef %82)
  store i64 %83, ptr %6, align 8, !tbaa !9
  %84 = load i64, ptr %6, align 8, !tbaa !9
  %85 = icmp sgt i64 %84, 0
  br i1 %85, label %86, label %102

86:                                               ; preds = %40
  %87 = load i32, ptr @http_is_verbose, align 4, !tbaa !19
  %88 = icmp ne i32 %87, 0
  br i1 %88, label %89, label %95

89:                                               ; preds = %86
  %90 = load ptr, ptr @stderr, align 8, !tbaa !111
  %91 = load ptr, ptr %4, align 8, !tbaa !4
  %92 = call ptr @hash_to_hex(ptr noundef %91)
  %93 = load i64, ptr %6, align 8, !tbaa !9
  %94 = call i32 (ptr, ptr, ...) @fprintf(ptr noundef %90, ptr noundef @.str.50, ptr noundef %92, i64 noundef %93) #11
  br label %95

95:                                               ; preds = %89, %86
  %96 = load ptr, ptr %7, align 8, !tbaa !187
  %97 = getelementptr inbounds nuw %struct.http_pack_request, ptr %96, i32 0, i32 5
  %98 = load ptr, ptr %97, align 8, !tbaa !191
  %99 = getelementptr inbounds nuw %struct.active_request_slot, ptr %98, i32 0, i32 0
  %100 = load ptr, ptr %99, align 8, !tbaa !94
  %101 = load i64, ptr %6, align 8, !tbaa !9
  call void @http_opt_request_remainder(ptr noundef %100, i64 noundef %101)
  br label %102

102:                                              ; preds = %95, %40
  %103 = load ptr, ptr %7, align 8, !tbaa !187
  store ptr %103, ptr %3, align 8
  store i32 1, ptr %8, align 4
  br label %111

104:                                              ; preds = %33
  %105 = load ptr, ptr %7, align 8, !tbaa !187
  %106 = getelementptr inbounds nuw %struct.http_pack_request, ptr %105, i32 0, i32 4
  call void @strbuf_release(ptr noundef %106)
  %107 = load ptr, ptr %7, align 8, !tbaa !187
  %108 = getelementptr inbounds nuw %struct.http_pack_request, ptr %107, i32 0, i32 0
  %109 = load ptr, ptr %108, align 8, !tbaa !193
  call void @free(ptr noundef %109) #11
  %110 = load ptr, ptr %7, align 8, !tbaa !187
  call void @free(ptr noundef %110) #11
  store ptr null, ptr %3, align 8
  store i32 1, ptr %8, align 4
  br label %111

111:                                              ; preds = %104, %102
  call void @llvm.lifetime.end.p0(i64 8, ptr %7) #11
  call void @llvm.lifetime.end.p0(i64 8, ptr %6) #11
  %112 = load ptr, ptr %3, align 8
  ret ptr %112
}