; Function Attrs: nounwind uwtable
define dso_local ptr @new_direct_http_pack_request(ptr noundef %0, ptr noundef %1) local_unnamed_addr #3 {
  %3 = alloca [128 x i8], align 16
  %4 = tail call ptr @xcalloc(i64 noundef 1, i64 noundef 72) #22
  %5 = getelementptr inbounds nuw i8, ptr %4, i64 32
  tail call void @strbuf_init(ptr noundef nonnull %5, i64 noundef 0) #22
  store ptr %1, ptr %4, align 8, !tbaa !169
  %6 = load ptr, ptr @the_repository, align 8, !tbaa !39
  %7 = tail call ptr @odb_pack_name(ptr noundef %6, ptr noundef nonnull %5, ptr noundef %0, ptr noundef nonnull @.str.47) #22
  tail call void @strbuf_add(ptr noundef nonnull %5, ptr noundef nonnull @.str.48, i64 noundef 5) #22
  %8 = getelementptr inbounds nuw i8, ptr %4, i64 48
  %9 = load ptr, ptr %8, align 8, !tbaa !170
  %10 = tail call ptr @git_fopen(ptr noundef %9, ptr noundef nonnull @.str.40) #22
  %11 = getelementptr inbounds nuw i8, ptr %4, i64 24
  store ptr %10, ptr %11, align 8, !tbaa !165
  %.not = icmp eq ptr %10, null
  br i1 %.not, label %12, label %16

12:                                               ; preds = %2
  %13 = load ptr, ptr %8, align 8, !tbaa !170
  %14 = tail call i32 (ptr, ...) @error(ptr noundef nonnull @.str.49, ptr noundef %13) #22
  tail call void @strbuf_release(ptr noundef nonnull %5) #22
  %15 = load ptr, ptr %4, align 8, !tbaa !169
  tail call void @free(ptr noundef %15) #22
  tail call void @free(ptr noundef nonnull %4) #22
  br label %59

16:                                               ; preds = %2
  %17 = tail call ptr @get_active_slot()
  %18 = getelementptr inbounds nuw i8, ptr %4, i64 56
  store ptr %17, ptr %18, align 8, !tbaa !167
  %19 = load ptr, ptr @extra_http_headers, align 8, !tbaa !56
  %.not7.i.i = icmp eq ptr %19, null
  %20 = load i64, ptr getelementptr inbounds nuw (i8, ptr @extra_http_headers, i64 8), align 8
  %.not.i = icmp eq i64 %20, 0
  %or.cond.i = select i1 %.not7.i.i, i1 true, i1 %.not.i
  br i1 %or.cond.i, label %object_request_headers.exit, label %.lr.ph.i.i

.lr.ph.i.i:                                       ; preds = %16, %.lr.ph.i.i
  %.068.i2.i = phi ptr [ %22, %.lr.ph.i.i ], [ null, %16 ]
  %.09.i1.i = phi ptr [ %23, %.lr.ph.i.i ], [ %19, %16 ]
  %21 = load ptr, ptr %.09.i1.i, align 8, !tbaa !57
  %22 = tail call ptr @curl_slist_append(ptr noundef %.068.i2.i, ptr noundef %21) #22
  %23 = getelementptr inbounds nuw i8, ptr %.09.i1.i, i64 16
  %24 = load ptr, ptr @extra_http_headers, align 8, !tbaa !56
  %25 = load i64, ptr getelementptr inbounds nuw (i8, ptr @extra_http_headers, i64 8), align 8, !tbaa !59
  %26 = getelementptr inbounds nuw %struct.string_list_item, ptr %24, i64 %25
  %27 = icmp ult ptr %23, %26
  br i1 %27, label %.lr.ph.i.i, label %object_request_headers.exit

object_request_headers.exit:                      ; preds = %.lr.ph.i.i, %16
  %.06.lcssa.i.i = phi ptr [ null, %16 ], [ %22, %.lr.ph.i.i ]
  %28 = tail call ptr @curl_slist_append(ptr noundef %.06.lcssa.i.i, ptr noundef nonnull @.str.190) #22
  %29 = getelementptr inbounds nuw i8, ptr %4, i64 64
  store ptr %28, ptr %29, align 8, !tbaa !168
  %30 = load ptr, ptr %18, align 8, !tbaa !167
  %31 = load ptr, ptr %30, align 8, !tbaa !87
  %32 = load ptr, ptr %11, align 8, !tbaa !165
  %33 = tail call i32 (ptr, i32, ...) @curl_easy_setopt(ptr noundef %31, i32 noundef 10001, ptr noundef %32) #22
  %34 = load ptr, ptr %18, align 8, !tbaa !167
  %35 = load ptr, ptr %34, align 8, !tbaa !87
  %36 = tail call i32 (ptr, i32, ...) @curl_easy_setopt(ptr noundef %35, i32 noundef 20011, ptr noundef nonnull @fwrite) #22
  %37 = load ptr, ptr %18, align 8, !tbaa !167
  %38 = load ptr, ptr %37, align 8, !tbaa !87
  %39 = load ptr, ptr %4, align 8, !tbaa !169
  %40 = tail call i32 (ptr, i32, ...) @curl_easy_setopt(ptr noundef %38, i32 noundef 10002, ptr noundef %39) #22
  %41 = load ptr, ptr %18, align 8, !tbaa !167
  %42 = load ptr, ptr %41, align 8, !tbaa !87
  %43 = load ptr, ptr %29, align 8, !tbaa !168
  %44 = tail call i32 (ptr, i32, ...) @curl_easy_setopt(ptr noundef %42, i32 noundef 10023, ptr noundef %43) #22
  %45 = load ptr, ptr %11, align 8, !tbaa !165
  %46 = tail call i64 @ftello64(ptr noundef %45)
  %47 = icmp sgt i64 %46, 0
  br i1 %47, label %48, label %59

48:                                               ; preds = %object_request_headers.exit
  %49 = load i32, ptr @http_is_verbose, align 4, !tbaa !38
  %.not30 = icmp eq i32 %49, 0
  br i1 %.not30, label %54, label %50

50:                                               ; preds = %48
  %51 = load ptr, ptr @stderr, align 8, !tbaa !106
  %52 = tail call ptr @hash_to_hex(ptr noundef %0) #22
  %53 = tail call i32 (ptr, ptr, ...) @fprintf(ptr noundef %51, ptr noundef nonnull @.str.50, ptr noundef %52, i64 noundef %46) #25
  br label %54

54:                                               ; preds = %50, %48
  %55 = load ptr, ptr %18, align 8, !tbaa !167
  %56 = load ptr, ptr %55, align 8, !tbaa !87
  call void @llvm.lifetime.start.p0(i64 128, ptr nonnull %3) #22
  %57 = call i32 (ptr, i64, ptr, ...) @xsnprintf(ptr noundef nonnull %3, i64 noundef 128, ptr noundef nonnull @.str.209, i64 noundef range(i64 1, -9223372036854775808) %46) #22
  %58 = call i32 (ptr, i32, ...) @curl_easy_setopt(ptr noundef %56, i32 noundef 10007, ptr noundef nonnull %3) #22
  call void @llvm.lifetime.end.p0(i64 128, ptr nonnull %3) #22
  br label %59

59:                                               ; preds = %object_request_headers.exit, %54, %12
  %.0 = phi ptr [ null, %12 ], [ %4, %54 ], [ %4, %object_request_headers.exit ]
  ret ptr %.0
}